; Function Attrs: mustprogress uwtable
define hidden noundef i32 @_ZNK4cvc58internal4prop11TheoryProxy17getModelUnsoundIdEv(ptr noundef nonnull readonly align 8 captures(none) dereferenceable(521) %0) local_unnamed_addr #4 align 2 {
  %2 = getelementptr inbounds nuw i8, ptr %0, i64 512
  %3 = load i8, ptr %2, align 8, !tbaa !395, !range !305, !noundef !306
  %4 = trunc nuw i8 %3 to i1
  br i1 %4, label %9, label %5

5:                                                ; preds = %1
  %6 = getelementptr inbounds nuw i8, ptr %0, i64 56
  %7 = load ptr, ptr %6, align 8, !tbaa !89
  %8 = tail call noundef i32 @_ZNK4cvc58internal12TheoryEngine17getModelUnsoundIdEv(ptr noundef nonnull align 8 dereferenceable(1480) %7)
  br label %9

9:                                                ; preds = %1, %5
  %.0 = phi i32 [ %8, %5 ], [ 22, %1 ]
  ret i32 %.0
}